; Function Attrs: nounwind uwtable
define dso_local void @boot_yypush_buffer_state(ptr noundef %0, ptr noundef captures(none) %1) local_unnamed_addr #0 {
  %3 = icmp eq ptr %0, null
  br i1 %3, label %72, label %4

4:                                                ; preds = %2
  %5 = getelementptr inbounds nuw i8, ptr %1, i64 40
  %6 = load ptr, ptr %5, align 8
  %.not.i = icmp eq ptr %6, null
  br i1 %.not.i, label %7, label %13

7:                                                ; preds = %4
  %8 = tail call ptr @palloc(i64 noundef 8) #15
  store ptr %8, ptr %5, align 8
  %.not28.i = icmp eq ptr %8, null
  br i1 %.not28.i, label %9, label %10

9:                                                ; preds = %7
  tail call fastcc void @yy_fatal_error(ptr noundef nonnull @.str.34) #16
  unreachable

10:                                               ; preds = %7
  store i64 0, ptr %8, align 8
  %11 = getelementptr inbounds nuw i8, ptr %1, i64 32
  store i64 1, ptr %11, align 8
  %12 = getelementptr inbounds nuw i8, ptr %1, i64 24
  store i64 0, ptr %12, align 8
  br label %boot_yyensure_buffer_stack.exit

13:                                               ; preds = %4
  %14 = getelementptr inbounds nuw i8, ptr %1, i64 24
  %15 = load i64, ptr %14, align 8
  %16 = getelementptr inbounds nuw i8, ptr %1, i64 32
  %17 = load i64, ptr %16, align 8
  %18 = add i64 %17, -1
  %.not29.i = icmp ult i64 %15, %18
  br i1 %.not29.i, label %boot_yyensure_buffer_stack.exit, label %boot_yyrealloc.exit.i

boot_yyrealloc.exit.i:                            ; preds = %13
  %19 = add i64 %17, 8
  %20 = shl i64 %19, 3
  %21 = tail call ptr @repalloc(ptr noundef nonnull %6, i64 noundef %20) #15
  store ptr %21, ptr %5, align 8
  %.not30.i = icmp eq ptr %21, null
  br i1 %.not30.i, label %22, label %23

22:                                               ; preds = %boot_yyrealloc.exit.i
  tail call fastcc void @yy_fatal_error(ptr noundef nonnull @.str.34) #16
  unreachable

23:                                               ; preds = %boot_yyrealloc.exit.i
  %24 = load i64, ptr %16, align 8
  %25 = getelementptr inbounds nuw ptr, ptr %21, i64 %24
  tail call void @llvm.memset.p0.i64(ptr noundef nonnull align 8 dereferenceable(64) %25, i8 0, i64 64, i1 false)
  store i64 %19, ptr %16, align 8
  %.pre = load i64, ptr %14, align 8
  br label %boot_yyensure_buffer_stack.exit

boot_yyensure_buffer_stack.exit:                  ; preds = %10, %13, %23
  %26 = phi i64 [ 0, %10 ], [ %15, %13 ], [ %.pre, %23 ]
  %27 = load ptr, ptr %5, align 8, !nonnull !14, !noundef !14
  %28 = getelementptr inbounds nuw i8, ptr %1, i64 24
  %29 = getelementptr inbounds nuw ptr, ptr %27, i64 %26
  %30 = load ptr, ptr %29, align 8
  %.not25 = icmp eq ptr %30, null
  br i1 %.not25, label %.thread, label %31

31:                                               ; preds = %boot_yyensure_buffer_stack.exit
  %32 = getelementptr inbounds nuw i8, ptr %1, i64 48
  %33 = load i8, ptr %32, align 8
  %34 = getelementptr inbounds nuw i8, ptr %1, i64 64
  %35 = load ptr, ptr %34, align 8
  store i8 %33, ptr %35, align 1
  %36 = load ptr, ptr %34, align 8
  %37 = load ptr, ptr %5, align 8
  %38 = load i64, ptr %28, align 8
  %39 = getelementptr inbounds nuw ptr, ptr %37, i64 %38
  %40 = load ptr, ptr %39, align 8
  %41 = getelementptr inbounds nuw i8, ptr %40, i64 16
  store ptr %36, ptr %41, align 8
  %42 = getelementptr inbounds nuw i8, ptr %1, i64 52
  %43 = load i32, ptr %42, align 4
  %44 = load ptr, ptr %5, align 8
  %45 = load i64, ptr %28, align 8
  %46 = getelementptr inbounds nuw ptr, ptr %44, i64 %45
  %47 = load ptr, ptr %46, align 8
  %48 = getelementptr inbounds nuw i8, ptr %47, i64 28
  store i32 %43, ptr %48, align 4
  %.pr.pre = load ptr, ptr %5, align 8
  %.pre30 = load i64, ptr %28, align 8
  %.phi.trans.insert31 = getelementptr inbounds nuw ptr, ptr %.pr.pre, i64 %.pre30
  %.pre32 = load ptr, ptr %.phi.trans.insert31, align 8
  %49 = icmp eq ptr %.pre32, null
  br i1 %49, label %.thread, label %50

50:                                               ; preds = %31
  %51 = add i64 %.pre30, 1
  store i64 %51, ptr %28, align 8
  br label %.thread

.thread:                                          ; preds = %boot_yyensure_buffer_stack.exit, %50, %31
  %.pr36 = phi ptr [ %.pr.pre, %50 ], [ %.pr.pre, %31 ], [ %27, %boot_yyensure_buffer_stack.exit ]
  %52 = phi i64 [ %51, %50 ], [ %.pre30, %31 ], [ %26, %boot_yyensure_buffer_stack.exit ]
  %53 = getelementptr inbounds nuw ptr, ptr %.pr36, i64 %52
  store ptr %0, ptr %53, align 8
  %54 = load ptr, ptr %5, align 8
  %55 = load i64, ptr %28, align 8
  %56 = getelementptr inbounds nuw ptr, ptr %54, i64 %55
  %57 = load ptr, ptr %56, align 8
  %58 = getelementptr inbounds nuw i8, ptr %57, i64 28
  %59 = load i32, ptr %58, align 4
  %60 = getelementptr inbounds nuw i8, ptr %1, i64 52
  store i32 %59, ptr %60, align 4
  %61 = load ptr, ptr %56, align 8
  %62 = getelementptr inbounds nuw i8, ptr %61, i64 16
  %63 = load ptr, ptr %62, align 8
  %64 = getelementptr inbounds nuw i8, ptr %1, i64 64
  store ptr %63, ptr %64, align 8
  %65 = getelementptr inbounds nuw i8, ptr %1, i64 128
  store ptr %63, ptr %65, align 8
  %66 = load ptr, ptr %56, align 8
  %67 = load ptr, ptr %66, align 8
  %68 = getelementptr inbounds nuw i8, ptr %1, i64 8
  store ptr %67, ptr %68, align 8
  %69 = load i8, ptr %63, align 1
  %70 = getelementptr inbounds nuw i8, ptr %1, i64 48
  store i8 %69, ptr %70, align 8
  %71 = getelementptr inbounds nuw i8, ptr %1, i64 80
  store i32 1, ptr %71, align 8
  br label %72

72:                                               ; preds = %2, %.thread
  ret void
}